target datalayout = "e-m:e-p270:32:32-p271:32:32-p272:64:64-i64:64-i128:128-f80:128-n8:16:32:64-S128"
target triple = "x86_64-pc-linux-gnu"

%class.DefaultProgramGenerator = type { %class.AbsProgramGenerator, i32, ptr, i64, ptr }
%class.AbsProgramGenerator = type { ptr }

; Function Attrs: mustprogress uwtable
define dso_local void @_ZN23DefaultProgramGenerator10initializeEv(ptr noundef nonnull align 8 dereferenceable(40) %0) unnamed_addr #4 align 2 {
  %2 = alloca ptr, align 8
  store ptr %0, ptr %2, align 8
  %3 = load ptr, ptr %2, align 8
  %4 = getelementptr inbounds %class.DefaultProgramGenerator, ptr %3, i32 0, i32 3
  %5 = load i64, ptr %4, align 8
  call void @_ZN12RandomNumber14CreateInstanceE16RNDNUM_GENERATORm(i32 noundef 0, i64 noundef %5)
  %6 = call noundef ptr @_ZN16DefaultOutputMgr14CreateInstanceEv()
  %7 = getelementptr inbounds %class.DefaultProgramGenerator, ptr %3, i32 0, i32 4
  store ptr %6, ptr %7, align 8
  call void @_ZN12ExtensionMgr15CreateExtensionEv()
  ret void
}