; Function Attrs: mustprogress uwtable
define dso_local void @_ZN23DefaultProgramGenerator10initializeEv(ptr nocapture noundef nonnull align 8 dereferenceable(40) %0) unnamed_addr #3 align 2 {
  %2 = getelementptr inbounds i8, ptr %0, i64 24
  %3 = load i64, ptr %2, align 8
  tail call void @_ZN12RandomNumber14CreateInstanceE16RNDNUM_GENERATORm(i32 noundef 0, i64 noundef %3)
  %4 = tail call noundef ptr @_ZN16DefaultOutputMgr14CreateInstanceEv()
  %5 = getelementptr inbounds i8, ptr %0, i64 32
  store ptr %4, ptr %5, align 8
  tail call void @_ZN12ExtensionMgr15CreateExtensionEv()
  ret void
}